target datalayout = "e-m:e-p270:32:32-p271:32:32-p272:64:64-i64:64-i128:128-f80:128-n8:16:32:64-S128"
target triple = "x86_64-pc-linux-gnu"

%struct._object = type { %union.anon, ptr }
%union.anon = type { i64 }
%struct.PyVarObject = type { %struct._object, i64 }
%struct.PyListObject = type { %struct.PyVarObject, ptr, i64 }
%struct.anon = type { i32, i32 }

@.str.4 = private unnamed_addr constant [5 x i8] c"list\00", align 1

; Function Attrs: nounwind uwtable
define internal void @free_list_items(ptr noundef %0, i1 noundef zeroext %1) #0 {
  %3 = alloca ptr, align 8
  %4 = alloca i8, align 1
  store ptr %0, ptr %3, align 8, !tbaa !119
  %5 = zext i1 %1 to i8
  store i8 %5, ptr %4, align 1, !tbaa !143
  %6 = load ptr, ptr %3, align 8, !tbaa !119
  call void @PyMem_Free(ptr noundef %6)
  ret void
}

; Function Attrs: inlinehint nounwind uwtable
define internal void @Py_XDECREF(ptr noundef %0) #2 {
  %2 = alloca ptr, align 8
  store ptr %0, ptr %2, align 8, !tbaa !36
  %3 = load ptr, ptr %2, align 8, !tbaa !36
  %4 = icmp ne ptr %3, null
  br i1 %4, label %5, label %7

5:                                                ; preds = %1
  %6 = load ptr, ptr %2, align 8, !tbaa !36
  call void @Py_DECREF(ptr noundef %6)
  br label %7

7:                                                ; preds = %5, %1
  ret void
}

; Function Attrs: inlinehint nounwind uwtable
define internal void @Py_SET_SIZE(ptr noundef %0, i64 noundef %1) #2 {
  %3 = alloca ptr, align 8
  %4 = alloca i64, align 8
  store ptr %0, ptr %3, align 8, !tbaa !27
  store i64 %1, ptr %4, align 8, !tbaa !26
  %5 = load i64, ptr %4, align 8, !tbaa !26
  %6 = load ptr, ptr %3, align 8, !tbaa !27
  %7 = getelementptr inbounds nuw %struct.PyVarObject, ptr %6, i32 0, i32 1
  store i64 %5, ptr %7, align 8, !tbaa !38
  ret void
}

; Function Attrs: inlinehint nounwind uwtable
define internal i64 @Py_SIZE(ptr noundef %0) #2 {
  %2 = alloca ptr, align 8
  store ptr %0, ptr %2, align 8, !tbaa !36
  %3 = load ptr, ptr %2, align 8, !tbaa !36
  %4 = getelementptr inbounds nuw %struct.PyVarObject, ptr %3, i32 0, i32 1
  %5 = load i64, ptr %4, align 8, !tbaa !38
  ret i64 %5
}

; Function Attrs: nounwind uwtable
define internal void @list_clear_impl(ptr noundef %0, i1 noundef zeroext %1) #0 {
  %3 = alloca ptr, align 8
  %4 = alloca i8, align 1
  %5 = alloca ptr, align 8
  %6 = alloca i32, align 4
  %7 = alloca i64, align 8
  %8 = alloca i8, align 1
  store ptr %0, ptr %3, align 8, !tbaa !27
  %9 = zext i1 %1 to i8
  store i8 %9, ptr %4, align 1, !tbaa !143
  call void @llvm.lifetime.start.p0(i64 8, ptr %5) #8
  %10 = load ptr, ptr %3, align 8, !tbaa !27
  %11 = getelementptr inbounds nuw %struct.PyListObject, ptr %10, i32 0, i32 1
  %12 = load ptr, ptr %11, align 8, !tbaa !28
  store ptr %12, ptr %5, align 8, !tbaa !119
  %13 = load ptr, ptr %5, align 8, !tbaa !119
  %14 = icmp eq ptr %13, null
  br i1 %14, label %15, label %16

15:                                               ; preds = %2
  store i32 1, ptr %6, align 4
  br label %37

16:                                               ; preds = %2
  call void @llvm.lifetime.start.p0(i64 8, ptr %7) #8
  %17 = load ptr, ptr %3, align 8, !tbaa !27
  %18 = call i64 @Py_SIZE(ptr noundef %17)
  store i64 %18, ptr %7, align 8, !tbaa !26
  %19 = load ptr, ptr %3, align 8, !tbaa !27
  call void @Py_SET_SIZE(ptr noundef %19, i64 noundef 0)
  %20 = load ptr, ptr %3, align 8, !tbaa !27
  %21 = getelementptr inbounds nuw %struct.PyListObject, ptr %20, i32 0, i32 1
  store ptr null, ptr %21, align 8, !tbaa !28
  %22 = load ptr, ptr %3, align 8, !tbaa !27
  %23 = getelementptr inbounds nuw %struct.PyListObject, ptr %22, i32 0, i32 2
  store i64 0, ptr %23, align 8, !tbaa !33
  br label %24

24:                                               ; preds = %28, %16
  %25 = load i64, ptr %7, align 8, !tbaa !26
  %26 = add i64 %25, -1
  store i64 %26, ptr %7, align 8, !tbaa !26
  %27 = icmp sge i64 %26, 0
  br i1 %27, label %28, label %33

28:                                               ; preds = %24
  %29 = load ptr, ptr %5, align 8, !tbaa !119
  %30 = load i64, ptr %7, align 8, !tbaa !26
  %31 = getelementptr ptr, ptr %29, i64 %30
  %32 = load ptr, ptr %31, align 8, !tbaa !36
  call void @Py_XDECREF(ptr noundef %32)
  br label %24, !llvm.loop !177

33:                                               ; preds = %24
  call void @llvm.lifetime.start.p0(i64 1, ptr %8) #8
  store i8 0, ptr %8, align 1, !tbaa !143
  %34 = load ptr, ptr %5, align 8, !tbaa !119
  %35 = load i8, ptr %8, align 1, !tbaa !143, !range !144, !noundef !145
  %36 = trunc i8 %35 to i1
  call void @free_list_items(ptr noundef %34, i1 noundef zeroext %36)
  call void @llvm.lifetime.end.p0(i64 1, ptr %8) #8
  call void @llvm.lifetime.end.p0(i64 8, ptr %7) #8
  store i32 0, ptr %6, align 4
  br label %37

37:                                               ; preds = %33, %15
  call void @llvm.lifetime.end.p0(i64 8, ptr %5) #8
  %38 = load i32, ptr %6, align 4
  switch i32 %38, label %40 [
    i32 0, label %39
    i32 1, label %39
  ]

39:                                               ; preds = %37, %37
  ret void

40:                                               ; preds = %37
  unreachable
}

; Function Attrs: alwaysinline nounwind uwtable
define internal i32 @_Py_IsImmortal(ptr noundef %0) #4 {
  %2 = alloca ptr, align 8
  store ptr %0, ptr %2, align 8, !tbaa !36
  %3 = load ptr, ptr %2, align 8, !tbaa !36
  %4 = getelementptr inbounds nuw %struct._object, ptr %3, i32 0, i32 0
  %5 = getelementptr inbounds nuw %struct.anon, ptr %4, i32 0, i32 0
  %6 = load i32, ptr %5, align 8, !tbaa !37
  %7 = icmp slt i32 %6, 0
  %8 = zext i1 %7 to i32
  ret i32 %8
}

; Function Attrs: nounwind uwtable
define internal void @list_clear(ptr noundef %0) #0 {
  %2 = alloca ptr, align 8
  store ptr %0, ptr %2, align 8, !tbaa !27
  %3 = load ptr, ptr %2, align 8, !tbaa !27
  call void @list_clear_impl(ptr noundef %3, i1 noundef zeroext true)
  ret void
}

; Function Attrs: alwaysinline nounwind uwtable
define internal void @Py_DECREF(ptr noundef %0) #4 {
  %2 = alloca ptr, align 8
  store ptr %0, ptr %2, align 8, !tbaa !36
  %3 = load ptr, ptr %2, align 8, !tbaa !36
  %4 = call i32 @_Py_IsImmortal(ptr noundef %3)
  %5 = icmp ne i32 %4, 0
  br i1 %5, label %6, label %7

6:                                                ; preds = %1
  br label %16

7:                                                ; preds = %1
  %8 = load ptr, ptr %2, align 8, !tbaa !36
  %9 = getelementptr inbounds nuw %struct._object, ptr %8, i32 0, i32 0
  %10 = getelementptr inbounds nuw %struct.anon, ptr %9, i32 0, i32 0
  %11 = load i32, ptr %10, align 8, !tbaa !37
  %12 = add i32 %11, -1
  store i32 %12, ptr %10, align 8, !tbaa !37
  %13 = icmp eq i32 %12, 0
  br i1 %13, label %14, label %16

14:                                               ; preds = %7
  %15 = load ptr, ptr %2, align 8, !tbaa !36
  call void @_Py_Dealloc(ptr noundef %15)
  br label %16

16:                                               ; preds = %6, %14, %7
  ret void
}

; Function Attrs: nounwind uwtable
define internal i32 @list___init___impl(ptr noundef %0, ptr noundef %1) #0 {
  %3 = alloca i32, align 4
  %4 = alloca ptr, align 8
  %5 = alloca ptr, align 8
  store ptr %0, ptr %4, align 8, !tbaa !27
  store ptr %1, ptr %5, align 8, !tbaa !36
  %6 = load ptr, ptr %4, align 8, !tbaa !27
  %7 = getelementptr inbounds nuw %struct.PyListObject, ptr %6, i32 0, i32 1
  %8 = load ptr, ptr %7, align 8, !tbaa !28
  %9 = icmp ne ptr %8, null
  br i1 %9, label %10, label %12

10:                                               ; preds = %2
  %11 = load ptr, ptr %4, align 8, !tbaa !27
  call void @list_clear(ptr noundef %11)
  br label %12

12:                                               ; preds = %10, %2
  %13 = load ptr, ptr %5, align 8, !tbaa !36
  %14 = icmp ne ptr %13, null
  br i1 %14, label %15, label %22

15:                                               ; preds = %12
  %16 = load ptr, ptr %4, align 8, !tbaa !27
  %17 = load ptr, ptr %5, align 8, !tbaa !36
  %18 = call i32 @_list_extend(ptr noundef %16, ptr noundef %17)
  %19 = icmp slt i32 %18, 0
  br i1 %19, label %20, label %21

20:                                               ; preds = %15
  store i32 -1, ptr %3, align 4
  br label %23

21:                                               ; preds = %15
  br label %22

22:                                               ; preds = %21, %12
  store i32 0, ptr %3, align 4
  br label %23

23:                                               ; preds = %22, %20
  %24 = load i32, ptr %3, align 4
  ret i32 %24
}

; Function Attrs: inlinehint nounwind uwtable
define internal i64 @_PyVectorcall_NARGS(i64 noundef %0) #2 {
  %2 = alloca i64, align 8
  store i64 %0, ptr %2, align 8, !tbaa !26
  %3 = load i64, ptr %2, align 8, !tbaa !26
  %4 = and i64 %3, 9223372036854775807
  ret i64 %4
}

; Function Attrs: nounwind uwtable
define internal ptr @list_vectorcall(ptr noundef %0, ptr noundef %1, i64 noundef %2, ptr noundef %3) #0 {
  %5 = alloca ptr, align 8
  %6 = alloca ptr, align 8
  %7 = alloca ptr, align 8
  %8 = alloca i64, align 8
  %9 = alloca ptr, align 8
  %10 = alloca i64, align 8
  %11 = alloca i32, align 4
  %12 = alloca ptr, align 8
  store ptr %0, ptr %6, align 8, !tbaa !36
  store ptr %1, ptr %7, align 8, !tbaa !119
  store i64 %2, ptr %8, align 8, !tbaa !26
  store ptr %3, ptr %9, align 8, !tbaa !36
  %13 = load ptr, ptr %9, align 8, !tbaa !36
  %14 = icmp eq ptr %13, null
  br i1 %14, label %20, label %15

15:                                               ; preds = %4
  %16 = load ptr, ptr %9, align 8, !tbaa !36
  %17 = call i32 @_PyArg_NoKwnames(ptr noundef @.str.4, ptr noundef %16)
  %18 = icmp ne i32 %17, 0
  br i1 %18, label %20, label %19

19:                                               ; preds = %15
  store ptr null, ptr %5, align 8
  br label %56

20:                                               ; preds = %15, %4
  call void @llvm.lifetime.start.p0(i64 8, ptr %10) #8
  %21 = load i64, ptr %8, align 8, !tbaa !26
  %22 = call i64 @_PyVectorcall_NARGS(i64 noundef %21)
  store i64 %22, ptr %10, align 8, !tbaa !26
  %23 = load i64, ptr %10, align 8, !tbaa !26
  %24 = icmp sle i64 0, %23
  br i1 %24, label %25, label %28

25:                                               ; preds = %20
  %26 = load i64, ptr %10, align 8, !tbaa !26
  %27 = icmp sle i64 %26, 1
  br i1 %27, label %33, label %28

28:                                               ; preds = %25, %20
  %29 = load i64, ptr %10, align 8, !tbaa !26
  %30 = call i32 @_PyArg_CheckPositional(ptr noundef @.str.4, i64 noundef %29, i64 noundef 0, i64 noundef 1)
  %31 = icmp ne i32 %30, 0
  br i1 %31, label %33, label %32

32:                                               ; preds = %28
  store ptr null, ptr %5, align 8
  store i32 1, ptr %11, align 4
  br label %55

33:                                               ; preds = %28, %25
  call void @llvm.lifetime.start.p0(i64 8, ptr %12) #8
  %34 = load ptr, ptr %6, align 8, !tbaa !36
  %35 = call ptr @PyType_GenericAlloc(ptr noundef %34, i64 noundef 0)
  store ptr %35, ptr %12, align 8, !tbaa !36
  %36 = load ptr, ptr %12, align 8, !tbaa !36
  %37 = icmp eq ptr %36, null
  br i1 %37, label %38, label %39

38:                                               ; preds = %33
  store ptr null, ptr %5, align 8
  store i32 1, ptr %11, align 4
  br label %54

39:                                               ; preds = %33
  %40 = load i64, ptr %10, align 8, !tbaa !26
  %41 = icmp ne i64 %40, 0
  br i1 %41, label %42, label %52

42:                                               ; preds = %39
  %43 = load ptr, ptr %12, align 8, !tbaa !36
  %44 = load ptr, ptr %7, align 8, !tbaa !119
  %45 = getelementptr ptr, ptr %44, i64 0
  %46 = load ptr, ptr %45, align 8, !tbaa !36
  %47 = call i32 @list___init___impl(ptr noundef %43, ptr noundef %46)
  %48 = icmp ne i32 %47, 0
  br i1 %48, label %49, label %51

49:                                               ; preds = %42
  %50 = load ptr, ptr %12, align 8, !tbaa !36
  call void @Py_DECREF(ptr noundef %50)
  store ptr null, ptr %5, align 8
  store i32 1, ptr %11, align 4
  br label %54

51:                                               ; preds = %42
  br label %52

52:                                               ; preds = %51, %39
  %53 = load ptr, ptr %12, align 8, !tbaa !36
  store ptr %53, ptr %5, align 8
  store i32 1, ptr %11, align 4
  br label %54

54:                                               ; preds = %52, %49, %38
  call void @llvm.lifetime.end.p0(i64 8, ptr %12) #8
  br label %55

55:                                               ; preds = %54, %32
  call void @llvm.lifetime.end.p0(i64 8, ptr %10) #8
  br label %56

56:                                               ; preds = %55, %19
  %57 = load ptr, ptr %5, align 8
  ret ptr %57
}