; Function Attrs: nounwind uwtable
define internal ptr @list_vectorcall(ptr noundef %0, ptr noundef readonly captures(none) %1, i64 noundef %2, ptr noundef %3) #0 {
  %5 = icmp eq ptr %3, null
  br i1 %5, label %8, label %6

6:                                                ; preds = %4
  %7 = tail call i32 @_PyArg_NoKwnames(ptr noundef nonnull @.str.4, ptr noundef nonnull %3) #12
  %.not = icmp eq i32 %7, 0
  br i1 %.not, label %Py_DECREF.exit, label %8

8:                                                ; preds = %6, %4
  %9 = and i64 %2, 9223372036854775807
  %10 = icmp samesign ult i64 %9, 2
  br i1 %10, label %13, label %11

11:                                               ; preds = %8
  %12 = tail call i32 @_PyArg_CheckPositional(ptr noundef nonnull @.str.4, i64 noundef %9, i64 noundef 0, i64 noundef 1) #12
  %.not16 = icmp eq i32 %12, 0
  br i1 %.not16, label %Py_DECREF.exit, label %13

13:                                               ; preds = %8, %11
  %14 = tail call ptr @PyType_GenericAlloc(ptr noundef %0, i64 noundef 0) #12
  %15 = icmp eq ptr %14, null
  br i1 %15, label %Py_DECREF.exit, label %16

16:                                               ; preds = %13
  %.not17 = icmp eq i64 %9, 0
  br i1 %.not17, label %Py_DECREF.exit, label %17

17:                                               ; preds = %16
  %18 = load ptr, ptr %1, align 8, !tbaa !112
  %19 = getelementptr inbounds nuw i8, ptr %14, i64 24
  %20 = load ptr, ptr %19, align 8, !tbaa !27
  %.not.i19 = icmp eq ptr %20, null
  br i1 %.not.i19, label %36, label %21

21:                                               ; preds = %17
  %22 = getelementptr i8, ptr %14, i64 16
  %.val.i.i.i = load i64, ptr %22, align 8, !tbaa !33
  %23 = add i64 %.val.i.i.i, -1
  %24 = icmp sgt i64 %23, -1
  tail call void @llvm.memset.p0.i64(ptr noundef nonnull align 8 dereferenceable(24) %22, i8 0, i64 24, i1 false)
  br i1 %24, label %.lr.ph.i.i.i, label %list_clear.exit.i

.lr.ph.i.i.i:                                     ; preds = %21, %Py_XDECREF.exit.i.i.i
  %25 = phi i64 [ %34, %Py_XDECREF.exit.i.i.i ], [ %23, %21 ]
  %26 = getelementptr ptr, ptr %20, i64 %25
  %27 = load ptr, ptr %26, align 8, !tbaa !112
  %.not.i.i.i.i = icmp eq ptr %27, null
  br i1 %.not.i.i.i.i, label %Py_XDECREF.exit.i.i.i, label %28

28:                                               ; preds = %.lr.ph.i.i.i
  %29 = load i32, ptr %27, align 8, !tbaa !32
  %.not.i.i.i.i.i = icmp sgt i32 %29, -1
  br i1 %.not.i.i.i.i.i, label %30, label %Py_XDECREF.exit.i.i.i

30:                                               ; preds = %28
  %31 = add nsw i32 %29, -1
  store i32 %31, ptr %27, align 8, !tbaa !32
  %32 = icmp eq i32 %31, 0
  br i1 %32, label %33, label %Py_XDECREF.exit.i.i.i

33:                                               ; preds = %30
  tail call void @_Py_Dealloc(ptr noundef nonnull %27) #12
  br label %Py_XDECREF.exit.i.i.i

Py_XDECREF.exit.i.i.i:                            ; preds = %33, %30, %28, %.lr.ph.i.i.i
  %34 = add nsw i64 %25, -1
  %35 = icmp sgt i64 %25, 0
  br i1 %35, label %.lr.ph.i.i.i, label %list_clear.exit.i, !llvm.loop !122

list_clear.exit.i:                                ; preds = %Py_XDECREF.exit.i.i.i, %21
  tail call void @PyMem_Free(ptr noundef nonnull %20) #12
  br label %36

36:                                               ; preds = %list_clear.exit.i, %17
  %.not6.i = icmp eq ptr %18, null
  br i1 %.not6.i, label %Py_DECREF.exit, label %37

37:                                               ; preds = %36
  %38 = tail call fastcc i32 @_list_extend(ptr noundef nonnull %14, ptr noundef nonnull %18)
  %39 = icmp slt i32 %38, 0
  br i1 %39, label %list___init___impl.exit, label %Py_DECREF.exit

list___init___impl.exit:                          ; preds = %37
  %40 = load i32, ptr %14, align 8, !tbaa !32
  %.not.i = icmp sgt i32 %40, -1
  br i1 %.not.i, label %41, label %Py_DECREF.exit

41:                                               ; preds = %list___init___impl.exit
  %42 = add nsw i32 %40, -1
  store i32 %42, ptr %14, align 8, !tbaa !32
  %43 = icmp eq i32 %42, 0
  br i1 %43, label %44, label %Py_DECREF.exit

44:                                               ; preds = %41
  tail call void @_Py_Dealloc(ptr noundef nonnull %14) #12
  br label %Py_DECREF.exit

Py_DECREF.exit:                                   ; preds = %37, %36, %44, %41, %list___init___impl.exit, %11, %16, %13, %6
  %.0 = phi ptr [ null, %6 ], [ null, %11 ], [ null, %13 ], [ %14, %16 ], [ null, %list___init___impl.exit ], [ null, %41 ], [ null, %44 ], [ %14, %36 ], [ %14, %37 ]
  ret ptr %.0
}